(dp0
S'lily'
p1
(dp2
S'digit4attempted'
p3
I4
sS'logins'
p4
I1
sS'digit6attempted'
p5
I1
sS'digit5attempted'
p6
I2
sS'digit0attempted'
p7
I4
sS'digit8attempted'
p8
I4
sS'digit9attempted'
p9
I3
sS'digit1attempted'
p10
I2
ss.