(dp0
S'lily'
p1
(dp2
S'digit1time'
p3
F1.3302359580993652
sS'digit1attempts'
p4
I60
sS'digit9attempts'
p5
I4
sS'digit3attempts'
p6
I25
sS'digit4time'
p7
F1.22403883934021
sS'digit5time'
p8
F0.891294002532959
sS'digit6time'
p9
F2.35856294631958
sS'digit6attempts'
p10
I12
sS'digit5attempts'
p11
I15
sS'digit8attempts'
p12
I6
sS'logins'
p13
I259
sS'digit2attempts'
p14
I34
sS'digit2time'
p15
F0.5311939716339111
sS'digit8time'
p16
F14.420080184936523
sS'digit4attempts'
p17
I19
sS'digit0time'
p18
F0.07051205635070801
sS'digit10attempts'
p19
I3
sS'digit7attempts'
p20
I7
sS'digit0attempts'
p21
I312
sS'digit3time'
p22
F0.8995649814605713
sS'digit9time'
p23
F3.3320438861846924
sS'digit7time'
p24
F1.5035181045532227
ss.