(dp0
S'lily'
p1
(dp2
S'digit5attemptedTime'
p3
F0.08093404769897461
sS'digit7attemptedTime'
p4
F1.2008728981018066
sS'digit1attempted'
p5
I35
sS'digit4attempted'
p6
I26
sS'digit0attemptedTime'
p7
F0.08479690551757812
sS'logins'
p8
I14
sS'digit7attempted'
p9
I30
sS'digit2attempted'
p10
I28
sS'digit1attemptedTime'
p11
F5.014944076538086
sS'digit6attemptedTime'
p12
F0.07861685752868652
sS'digit6attempted'
p13
I28
sS'digit5attempted'
p14
I28
sS'digit0attempted'
p15
I35
sS'digit8attempted'
p16
I30
sS'digit9attempted'
p17
I26
sS'digit9attemptedTime'
p18
F1.2658510208129883
sS'digit3attempted'
p19
I28
sS'digit2attemptedTime'
p20
F0.0884389877319336
sS'digit8attemptedTime'
p21
F0.5722692012786865
sS'digit4attemptedTime'
p22
F0.0795750617980957
sS'digit3attemptedTime'
p23
F0.09041905403137207
ss.