(dp0
S'lily'
p1
(dp2
S'digit5attemptedTime'
p3
F1.1250431537628174
sS'digit7attemptedTime'
p4
F10.811048984527588
sS'digit1attempted'
p5
I109
sS'digit4attempted'
p6
I72
sS'digit0attemptedTime'
p7
F2.4757699966430664
sS'logins'
p8
I56
sS'digit7attempted'
p9
I75
sS'digit2attempted'
p10
I90
sS'digit1attemptedTime'
p11
F3.0663530826568604
sS'digit6attemptedTime'
p12
F0.5668380260467529
sS'digit6attempted'
p13
I75
sS'digit5attempted'
p14
I72
sS'digit0attempted'
p15
I91
sS'digit8attempted'
p16
I74
sS'digit9attempted'
p17
I64
sS'digit9attemptedTime'
p18
F0.38527703285217285
sS'digit3attempted'
p19
I83
sS'digit2attemptedTime'
p20
F0.24781489372253418
sS'digit8attemptedTime'
p21
F0.4118478298187256
sS'digit4attemptedTime'
p22
F0.08177495002746582
sS'digit3attemptedTime'
p23
F10.26364016532898
ss.