(dp0
S'lily'
p1
(dp2
S'digit5attemptedTime'
p3
F0.976233959197998
sS'digit7attemptedTime'
p4
F1.297957181930542
sS'digit4attemptedTime'
p5
F1.734921932220459
sS'digit4attempted'
p6
I78
sS'digit0attemptedTime'
p7
F1.245877981185913
sS'logins'
p8
I63
sS'digit7attempted'
p9
I81
sS'digit2attempted'
p10
I97
sS'digit1attemptedTime'
p11
F2.10575795173645
sS'digit6attemptedTime'
p12
F10.254807949066162
sS'digit6attempted'
p13
I81
sS'digit5attempted'
p14
I78
sS'digit0attempted'
p15
I99
sS'digit8attempted'
p16
I80
sS'digit9attempted'
p17
I68
sS'digit9attemptedTime'
p18
F1.1752870082855225
sS'digit3attempted'
p19
I89
sS'digit2attemptedTime'
p20
F10.793534994125366
sS'digit8attemptedTime'
p21
F1.2685680389404297
sS'digit1attempted'
p22
I119
sS'digit3attemptedTime'
p23
F0.7723281383514404
ss.