(dp0
S'toast'
p1
(dp2
S'complvl3'
p3
I01
sS'complvl2'
p4
I01
sS'complvl1'
p5
I01
sS'digit1time'
p6
F1.8089110851287842
sS'digit1attempts'
p7
I5
sS'digit9attempts'
p8
I6
sS'digit3attempts'
p9
I4
sS'digit0fails'
p10
I0
sS'digit4time'
p11
F2.0137369632720947
sS'digit2fails'
p12
I0
sS'digit6fails'
p13
I0
sS'digit5time'
p14
F1.7258741855621338
sS'besttime'
p15
F21.61090326309204
sS'digit6time'
p16
F2.9807708263397217
sS'digit7fails'
p17
I0
sS'digit6attempts'
p18
I6
sS'digit9fails'
p19
I0
sS'digit1fails'
p20
I0
sS'digit5attempts'
p21
I6
sS'digit8attempts'
p22
I5
sS'logins'
p23
I2
sS'digit5fails'
p24
I0
sS'bestscore'
p25
I12
sS'digit2attempts'
p26
I5
sS'digit2time'
p27
F1.9573380947113037
sS'digit8time'
p28
F2.3025929927825928
sS'badge4'
p29
I01
sS'digit8fails'
p30
I2
sS'badge1'
p31
I01
sS'digit4attempts'
p32
I8
sS'badge3'
p33
I01
sS'badge2'
p34
I01
sS'digit0time'
p35
F2.3428361415863037
sS'digit7attempts'
p36
I7
sS'digit0attempts'
p37
I5
sS'digit4fails'
p38
I0
sS'digit3fails'
p39
I1
sS'digit3time'
p40
F1.7290148735046387
sS'digit9time'
p41
F2.1782591342926025
sS'digit7time'
p42
F2.168154001235962
ssS'potatoe'
p43
(dp44
S'complvl3'
p45
I00
sS'complvl2'
p46
I00
sS'complvl1'
p47
I00
sS'digit1time'
p48
I100
sS'digit1attempts'
p49
I0
sS'digit9attempts'
p50
I0
sS'digit3attempts'
p51
I0
sS'digit0fails'
p52
I0
sS'digit4time'
p53
I100
sS'digit2fails'
p54
I0
sS'digit6fails'
p55
I0
sS'digit5time'
p56
I100
sS'besttime'
p57
I100
sS'digit6time'
p58
I100
sS'digit7fails'
p59
I0
sS'digit6attempts'
p60
I0
sS'digit9fails'
p61
I0
sS'logins'
p62
I2
sS'digit5attempts'
p63
I0
sS'digit8attempts'
p64
I0
sS'digit1fails'
p65
I0
sS'digit5fails'
p66
I0
sS'bestscore'
p67
I0
sS'digit2attempts'
p68
I0
sS'digit2time'
p69
I100
sS'digit8time'
p70
I100
sS'badge4'
p71
I00
sS'digit8fails'
p72
I0
sS'badge1'
p73
I00
sS'digit4attempts'
p74
I0
sS'badge3'
p75
I00
sS'badge2'
p76
I00
sS'digit0time'
p77
I100
sS'digit7attempts'
p78
I0
sS'digit0attempts'
p79
I0
sS'digit4fails'
p80
I0
sS'digit3fails'
p81
I0
sS'digit3time'
p82
I100
sS'digit9time'
p83
I100
sS'digit7time'
p84
I100
ssS'coffee'
p85
(dp86
S'complvl3'
p87
I01
sS'complvl2'
p88
I00
sS'complvl1'
p89
I00
sS'digit1time'
p90
I100
sS'digit1attempts'
p91
I4
sS'digit9attempts'
p92
I0
sS'digit3attempts'
p93
I1
sS'digit0fails'
p94
I1
sS'digit4time'
p95
I100
sS'digit2fails'
p96
I1
sS'digit6fails'
p97
I2
sS'digit5time'
p98
I100
sS'besttime'
p99
I100
sS'digit6time'
p100
I100
sS'digit7fails'
p101
I1
sS'digit6attempts'
p102
I2
sS'digit9fails'
p103
I1
sS'logins'
p104
I7
sS'digit5attempts'
p105
I3
sS'digit8attempts'
p106
I2
sS'digit1fails'
p107
I0
sS'digit5fails'
p108
I0
sS'bestscore'
p109
I7
sS'digit2attempts'
p110
I1
sS'digit2time'
p111
I100
sS'digit8time'
p112
I100
sS'badge4'
p113
I00
sS'digit8fails'
p114
I2
sS'badge1'
p115
I00
sS'digit4attempts'
p116
I3
sS'badge3'
p117
I01
sS'badge2'
p118
I00
sS'digit0time'
p119
I100
sS'digit7attempts'
p120
I1
sS'digit0attempts'
p121
I0
sS'digit4fails'
p122
I1
sS'digit3fails'
p123
I0
sS'digit3time'
p124
I100
sS'digit9time'
p125
I100
sS'digit7time'
p126
I100
ssS'bonbons'
p127
(dp128
S'complvl3'
p129
I01
sS'complvl2'
p130
I01
sS'complvl1'
p131
I01
sS'digit1time'
p132
F2.077331066131592
sS'digit1attempts'
p133
I9
sS'digit9attempts'
p134
I12
sS'digit3attempts'
p135
I7
sS'digit0fails'
p136
I1
sS'digit4time'
p137
F1.70393705368042
sS'digit2fails'
p138
I0
sS'digit6fails'
p139
I2
sS'digit5time'
p140
F1.847149133682251
sS'besttime'
p141
F22.586570262908936
sS'digit6time'
p142
F2.1932008266448975
sS'digit7fails'
p143
I0
sS'digit6attempts'
p144
I8
sS'digit9fails'
p145
I0
sS'logins'
p146
I2
sS'digit5attempts'
p147
I9
sS'digit8attempts'
p148
I8
sS'digit1fails'
p149
I0
sS'digit5fails'
p150
I0
sS'bestscore'
p151
I15
sS'digit2attempts'
p152
I8
sS'digit2time'
p153
F2.065847873687744
sS'digit8time'
p154
F2.3527309894561768
sS'badge4'
p155
I00
sS'digit8fails'
p156
I0
sS'badge1'
p157
I01
sS'digit4attempts'
p158
I8
sS'badge3'
p159
I01
sS'badge2'
p160
I01
sS'digit0time'
p161
F1.8679401874542236
sS'digit7attempts'
p162
I7
sS'digit0attempts'
p163
I9
sS'digit4fails'
p164
I0
sS'digit3fails'
p165
I0
sS'digit3time'
p166
F1.706827163696289
sS'digit9time'
p167
F2.164350986480713
sS'digit7time'
p168
F2.027758836746216
ssS'potato'
p169
(dp170
S'complvl3'
p171
I01
sS'complvl2'
p172
I01
sS'complvl1'
p173
I01
sS'digit1time'
p174
F1.9894611835479736
sS'digit1attempts'
p175
I5
sS'digit9attempts'
p176
I4
sS'digit3attempts'
p177
I5
sS'digit0fails'
p178
I0
sS'digit4time'
p179
F1.9827721118927002
sS'digit2fails'
p180
I1
sS'digit6fails'
p181
I2
sS'digit5time'
p182
F2.6053969860076904
sS'besttime'
p183
F21.86295509338379
sS'digit6time'
p184
F2.319852113723755
sS'digit7fails'
p185
I0
sS'digit6attempts'
p186
I5
sS'digit9fails'
p187
I0
sS'logins'
p188
I1
sS'digit5attempts'
p189
I5
sS'digit8attempts'
p190
I6
sS'digit1fails'
p191
I0
sS'digit5fails'
p192
I0
sS'bestscore'
p193
I5
sS'digit2attempts'
p194
I5
sS'digit2time'
p195
F1.912585973739624
sS'digit8time'
p196
F2.3356621265411377
sS'badge4'
p197
I00
sS'digit8fails'
p198
I0
sS'badge1'
p199
I01
sS'digit4attempts'
p200
I5
sS'badge3'
p201
I01
sS'badge2'
p202
I01
sS'digit0time'
p203
F2.0246059894561768
sS'digit7attempts'
p204
I5
sS'digit0attempts'
p205
I4
sS'digit4fails'
p206
I0
sS'digit3fails'
p207
I0
sS'digit3time'
p208
F1.6871509552001953
sS'digit9time'
p209
F2.0934200286865234
sS'digit7time'
p210
F2.2069740295410156
ssS'lily'
p211
(dp212
S'complvl3'
p213
I01
sS'complvl2'
p214
I01
sS'complvl1'
p215
I01
sS'digit1time'
p216
F1.7810719013214111
sS'digit1attempts'
p217
I14
sS'digit9attempts'
p218
I13
sS'digit3attempts'
p219
I16
sS'digit0fails'
p220
I2
sS'digit4time'
p221
F1.8892951011657715
sS'digit2fails'
p222
I2
sS'digit6fails'
p223
I2
sS'digit5time'
p224
F1.9257469177246094
sS'besttime'
p225
F21.493956804275513
sS'digit6time'
p226
F2.2206389904022217
sS'digit7fails'
p227
I1
sS'digit6attempts'
p228
I11
sS'digit9fails'
p229
I1
sS'logins'
p230
I45
sS'digit5attempts'
p231
I11
sS'digit8attempts'
p232
I12
sS'digit1fails'
p233
I2
sS'digit5fails'
p234
I1
sS'bestscore'
p235
I20
sS'digit2attempts'
p236
I12
sS'digit2time'
p237
F2.3257977962493896
sS'digit8time'
p238
F2.1817378997802734
sS'badge4'
p239
I01
sS'digit8fails'
p240
I1
sS'badge1'
p241
I01
sS'digit4attempts'
p242
I11
sS'badge3'
p243
I01
sS'badge2'
p244
I01
sS'digit0time'
p245
F2.189815044403076
sS'digit7attempts'
p246
I17
sS'digit0attempts'
p247
I17
sS'digit4fails'
p248
I2
sS'digit3fails'
p249
I1
sS'digit3time'
p250
F1.7126188278198242
sS'digit9time'
p251
F2.141835927963257
sS'digit7time'
p252
F2.01088809967041
ss.