(dp0
S'lily'
p1
(dp2
S'complvl3'
p3
I00
sS'complvl2'
p4
I00
sS'complvl1'
p5
I00
sS'digit1time'
p6
F1.9551198482513428
sS'digit1attempts'
p7
I9
sS'digit9attempts'
p8
I2
sS'digit3attempts'
p9
I5
sS'digit4time'
p10
F2.0393970012664795
sS'digit5time'
p11
F2.0023488998413086
sS'besttime'
p12
I100
sS'digit6time'
p13
F2.2947590351104736
sS'digit6attempts'
p14
I3
sS'digit5attempts'
p15
I5
sS'digit8attempts'
p16
I2
sS'logins'
p17
I112
sS'digit2attempts'
p18
I7
sS'digit2time'
p19
F2.08683705329895
sS'digit8time'
p20
F3.7137742042541504
sS'digit4attempts'
p21
I5
sS'digit0time'
p22
F1.4374887943267822
sS'digit7attempts'
p23
I3
sS'digit0attempts'
p24
I12
sS'digit3time'
p25
F1.7304749488830566
sS'digit9time'
p26
F2.542523145675659
sS'digit7time'
p27
F2.336669921875
ss.