(dp0
S'potatoe'
p1
(dp2
S'complvl3'
p3
I00
sS'complvl2'
p4
I00
sS'complvl1'
p5
I00
sS'digit1time'
p6
I100
sS'digit1attempts'
p7
I0
sS'digit9attempts'
p8
I0
sS'digit3attempts'
p9
I0
sS'digit0fails'
p10
I0
sS'digit4time'
p11
I100
sS'digit2fails'
p12
I0
sS'digit6fails'
p13
I0
sS'digit5time'
p14
I100
sS'besttime'
p15
I100
sS'digit6time'
p16
I100
sS'digit7fails'
p17
I0
sS'digit6attempts'
p18
I0
sS'digit9fails'
p19
I0
sS'logins'
p20
I2
sS'digit5attempts'
p21
I0
sS'digit8attempts'
p22
I0
sS'digit1fails'
p23
I0
sS'digit5fails'
p24
I0
sS'bestscore'
p25
I0
sS'digit2attempts'
p26
I0
sS'digit2time'
p27
I100
sS'digit8time'
p28
I100
sS'badge4'
p29
I00
sS'digit8fails'
p30
I0
sS'badge1'
p31
I00
sS'digit4attempts'
p32
I0
sS'badge3'
p33
I00
sS'badge2'
p34
I00
sS'digit0time'
p35
I100
sS'digit7attempts'
p36
I0
sS'digit0attempts'
p37
I0
sS'digit4fails'
p38
I0
sS'digit3fails'
p39
I0
sS'digit3time'
p40
I100
sS'digit9time'
p41
I100
sS'digit7time'
p42
I100
ssS'coffee'
p43
(dp44
S'complvl3'
p45
I01
sS'complvl2'
p46
I00
sS'complvl1'
p47
I00
sS'digit1time'
p48
I100
sS'digit1attempts'
p49
I4
sS'digit9attempts'
p50
I0
sS'digit3attempts'
p51
I1
sS'digit0fails'
p52
I1
sS'digit4time'
p53
I100
sS'digit2fails'
p54
I1
sS'digit6fails'
p55
I2
sS'digit5time'
p56
I100
sS'besttime'
p57
I100
sS'digit6time'
p58
I100
sS'digit7fails'
p59
I1
sS'digit6attempts'
p60
I2
sS'digit9fails'
p61
I1
sS'logins'
p62
I7
sS'digit5attempts'
p63
I3
sS'digit8attempts'
p64
I2
sS'digit1fails'
p65
I0
sS'digit5fails'
p66
I0
sS'bestscore'
p67
I7
sS'digit2attempts'
p68
I1
sS'digit2time'
p69
I100
sS'digit8time'
p70
I100
sS'badge4'
p71
I00
sS'digit8fails'
p72
I2
sS'badge1'
p73
I00
sS'digit4attempts'
p74
I3
sS'badge3'
p75
I01
sS'badge2'
p76
I00
sS'digit0time'
p77
I100
sS'digit7attempts'
p78
I1
sS'digit0attempts'
p79
I0
sS'digit4fails'
p80
I1
sS'digit3fails'
p81
I0
sS'digit3time'
p82
I100
sS'digit9time'
p83
I100
sS'digit7time'
p84
I100
ssS'lily'
p85
(dp86
S'complvl3'
p87
I01
sS'complvl2'
p88
I01
sS'complvl1'
p89
I01
sS'digit1time'
p90
F1.7810719013214111
sS'digit1attempts'
p91
I13
sS'digit9attempts'
p92
I12
sS'digit3attempts'
p93
I15
sS'digit0fails'
p94
I2
sS'digit4time'
p95
F1.8892951011657715
sS'digit2fails'
p96
I2
sS'digit6fails'
p97
I2
sS'digit5time'
p98
F1.9257469177246094
sS'besttime'
p99
F21.493956804275513
sS'digit6time'
p100
F2.2206389904022217
sS'digit7fails'
p101
I1
sS'digit6attempts'
p102
I10
sS'digit9fails'
p103
I1
sS'logins'
p104
I41
sS'digit5attempts'
p105
I10
sS'digit8attempts'
p106
I11
sS'digit1fails'
p107
I2
sS'digit5fails'
p108
I1
sS'bestscore'
p109
I20
sS'digit2attempts'
p110
I11
sS'digit2time'
p111
F2.3257977962493896
sS'digit8time'
p112
F2.1817378997802734
sS'badge4'
p113
I01
sS'digit8fails'
p114
I1
sS'badge1'
p115
I01
sS'digit4attempts'
p116
I10
sS'badge3'
p117
I01
sS'badge2'
p118
I01
sS'digit0time'
p119
F2.1899971961975098
sS'digit7attempts'
p120
I16
sS'digit0attempts'
p121
I16
sS'digit4fails'
p122
I2
sS'digit3fails'
p123
I1
sS'digit3time'
p124
F1.7126188278198242
sS'digit9time'
p125
F2.143998861312866
sS'digit7time'
p126
F2.01088809967041
ssS'bonbons'
p127
(dp128
S'complvl3'
p129
I01
sS'complvl2'
p130
I01
sS'complvl1'
p131
I01
sS'digit1time'
p132
F2.077331066131592
sS'digit1attempts'
p133
I9
sS'digit9attempts'
p134
I12
sS'digit3attempts'
p135
I7
sS'digit0fails'
p136
I1
sS'digit4time'
p137
F1.70393705368042
sS'digit2fails'
p138
I0
sS'digit6fails'
p139
I2
sS'digit5time'
p140
F1.847149133682251
sS'besttime'
p141
F22.586570262908936
sS'digit6time'
p142
F2.1932008266448975
sS'digit7fails'
p143
I0
sS'digit6attempts'
p144
I8
sS'digit9fails'
p145
I0
sS'logins'
p146
I2
sS'digit5attempts'
p147
I9
sS'digit8attempts'
p148
I8
sS'digit1fails'
p149
I0
sS'digit5fails'
p150
I0
sS'bestscore'
p151
I15
sS'digit2attempts'
p152
I8
sS'digit2time'
p153
F2.065847873687744
sS'digit8time'
p154
F2.3527309894561768
sS'badge4'
p155
I00
sS'digit8fails'
p156
I0
sS'badge1'
p157
I01
sS'digit4attempts'
p158
I8
sS'badge3'
p159
I01
sS'badge2'
p160
I01
sS'digit0time'
p161
F1.8679401874542236
sS'digit7attempts'
p162
I7
sS'digit0attempts'
p163
I9
sS'digit4fails'
p164
I0
sS'digit3fails'
p165
I0
sS'digit3time'
p166
F1.706827163696289
sS'digit9time'
p167
F2.164350986480713
sS'digit7time'
p168
F2.027758836746216
ssS'potato'
p169
(dp170
S'complvl3'
p171
I01
sS'complvl2'
p172
I01
sS'complvl1'
p173
I01
sS'digit1time'
p174
F1.9894611835479736
sS'digit1attempts'
p175
I5
sS'digit9attempts'
p176
I4
sS'digit3attempts'
p177
I5
sS'digit0fails'
p178
I0
sS'digit4time'
p179
F1.9827721118927002
sS'digit2fails'
p180
I1
sS'digit6fails'
p181
I2
sS'digit5time'
p182
F2.6053969860076904
sS'besttime'
p183
F21.86295509338379
sS'digit6time'
p184
F2.319852113723755
sS'digit7fails'
p185
I0
sS'digit6attempts'
p186
I5
sS'digit9fails'
p187
I0
sS'logins'
p188
I1
sS'digit5attempts'
p189
I5
sS'digit8attempts'
p190
I6
sS'digit1fails'
p191
I0
sS'digit5fails'
p192
I0
sS'bestscore'
p193
I5
sS'digit2attempts'
p194
I5
sS'digit2time'
p195
F1.912585973739624
sS'digit8time'
p196
F2.3356621265411377
sS'badge4'
p197
I00
sS'digit8fails'
p198
I0
sS'badge1'
p199
I01
sS'digit4attempts'
p200
I5
sS'badge3'
p201
I01
sS'badge2'
p202
I01
sS'digit0time'
p203
F2.0246059894561768
sS'digit7attempts'
p204
I5
sS'digit0attempts'
p205
I4
sS'digit4fails'
p206
I0
sS'digit3fails'
p207
I0
sS'digit3time'
p208
F1.6871509552001953
sS'digit9time'
p209
F2.0934200286865234
sS'digit7time'
p210
F2.2069740295410156
ss.