(dp0
S'julianna'
p1
(dp2
S'complvl3'
p3
I00
sS'complvl2'
p4
I00
sS'complvl1'
p5
I00
sS'digit1time'
p6
F2.5728089809417725
sS'digit1attempts'
p7
I2
sS'digit9attempts'
p8
I2
sS'digit3attempts'
p9
I3
sS'digit4time'
p10
F2.341750144958496
sS'digit5time'
p11
F2.3362200260162354
sS'besttime'
p12
I100
sS'digit6time'
p13
F3.3085780143737793
sS'digit6attempts'
p14
I3
sS'digit5attempts'
p15
I3
sS'digit8attempts'
p16
I1
sS'logins'
p17
I1
sS'digit2attempts'
p18
I3
sS'digit2time'
p19
F2.500999927520752
sS'digit8time'
p20
F2.1023149490356445
sS'digit4attempts'
p21
I2
sS'digit0time'
p22
F2.726696014404297
sS'digit7attempts'
p23
I2
sS'digit0attempts'
p24
I1
sS'digit3time'
p25
F3.508833885192871
sS'digit9time'
p26
F2.5998780727386475
sS'digit7time'
p27
F2.5283520221710205
ssS'shawn '
p28
(dp29
S'complvl3'
p30
I00
sS'complvl2'
p31
I00
sS'complvl1'
p32
I00
sS'digit1time'
p33
I100
sS'digit1attempts'
p34
I0
sS'digit9attempts'
p35
I0
sS'digit3attempts'
p36
I0
sS'digit4time'
p37
I100
sS'digit5time'
p38
I100
sS'besttime'
p39
I100
sS'digit6time'
p40
I100
sS'digit6attempts'
p41
I0
sS'digit5attempts'
p42
I0
sS'digit8attempts'
p43
I0
sS'logins'
p44
I1
sS'digit2attempts'
p45
I0
sS'digit2time'
p46
I100
sS'digit8time'
p47
I100
sS'digit4attempts'
p48
I0
sS'digit0time'
p49
I100
sS'digit7attempts'
p50
I0
sS'digit0attempts'
p51
I0
sS'digit3time'
p52
I100
sS'digit9time'
p53
I100
sS'digit7time'
p54
I100
ssS'poop'
p55
(dp56
S'complvl3'
p57
I00
sS'complvl2'
p58
I00
sS'complvl1'
p59
I01
sS'digit1time'
p60
F2.6195149421691895
sS'digit1attempts'
p61
I1
sS'digit9attempts'
p62
I3
sS'digit3attempts'
p63
I1
sS'digit4time'
p64
F2.6279759407043457
sS'digit5time'
p65
F2.523216962814331
sS'besttime'
p66
I100
sS'digit6time'
p67
F2.98420786857605
sS'digit6attempts'
p68
I1
sS'digit5attempts'
p69
I1
sS'digit8attempts'
p70
I3
sS'logins'
p71
I1
sS'digit2attempts'
p72
I1
sS'digit2time'
p73
F2.7782440185546875
sS'digit8time'
p74
F2.8626620769500732
sS'badge4'
p75
I00
sS'badge1'
p76
I01
sS'digit4attempts'
p77
I1
sS'badge3'
p78
I00
sS'badge2'
p79
I00
sS'digit0time'
p80
F2.4557249546051025
sS'digit7attempts'
p81
I1
sS'digit0attempts'
p82
I1
sS'digit3time'
p83
F2.8968570232391357
sS'digit9time'
p84
F2.3886940479278564
sS'digit7time'
p85
F5.215611934661865
ssS'hutch'
p86
(dp87
S'complvl3'
p88
I00
sS'complvl2'
p89
I00
sS'complvl1'
p90
I01
sS'digit1time'
p91
F2.368675947189331
sS'digit1attempts'
p92
I2
sS'digit9attempts'
p93
I8
sS'digit3attempts'
p94
I1
sS'digit4time'
p95
F2.0023531913757324
sS'digit5time'
p96
F2.2259480953216553
sS'besttime'
p97
I100
sS'digit6time'
p98
F2.498718023300171
sS'digit6attempts'
p99
I2
sS'digit5attempts'
p100
I2
sS'digit8attempts'
p101
I8
sS'logins'
p102
I3
sS'digit2attempts'
p103
I3
sS'digit2time'
p104
F2.563585042953491
sS'digit8time'
p105
F2.799668073654175
sS'badge4'
p106
I00
sS'badge1'
p107
I01
sS'digit4attempts'
p108
I2
sS'badge3'
p109
I00
sS'badge2'
p110
I00
sS'digit0time'
p111
F2.361096143722534
sS'digit7attempts'
p112
I2
sS'digit0attempts'
p113
I2
sS'digit3time'
p114
F2.9993300437927246
sS'digit9time'
p115
F2.2643799781799316
sS'digit7time'
p116
F2.672545909881592
ssS'potato'
p117
(dp118
S'complvl3'
p119
I00
sS'complvl2'
p120
I00
sS'complvl1'
p121
I00
sS'digit1time'
p122
I100
sS'digit1attempts'
p123
I0
sS'digit9attempts'
p124
I0
sS'digit3attempts'
p125
I0
sS'digit4time'
p126
I100
sS'digit5time'
p127
I100
sS'besttime'
p128
I100
sS'digit6time'
p129
I100
sS'digit6attempts'
p130
I0
sS'digit5attempts'
p131
I0
sS'digit8attempts'
p132
I0
sS'logins'
p133
I2
sS'digit2attempts'
p134
I0
sS'digit2time'
p135
I100
sS'digit8time'
p136
I100
sS'digit4attempts'
p137
I0
sS'digit0time'
p138
I100
sS'digit7attempts'
p139
I0
sS'digit0attempts'
p140
I0
sS'digit3time'
p141
I100
sS'digit9time'
p142
I100
sS'digit7time'
p143
I100
ssS'shawn'
p144
(dp145
S'complvl3'
p146
I00
sS'complvl2'
p147
I00
sS'complvl1'
p148
I00
sS'digit1time'
p149
F3.5476250648498535
sS'digit1attempts'
p150
I1
sS'digit9attempts'
p151
I1
sS'digit3attempts'
p152
I1
sS'digit4time'
p153
F9.179764032363892
sS'digit5time'
p154
F7.482395887374878
sS'besttime'
p155
I100
sS'digit6time'
p156
F2.9688310623168945
sS'digit6attempts'
p157
I1
sS'digit5attempts'
p158
I1
sS'digit8attempts'
p159
I1
sS'logins'
p160
I1
sS'digit2attempts'
p161
I1
sS'digit2time'
p162
F4.993699073791504
sS'digit8time'
p163
F3.7341878414154053
sS'digit4attempts'
p164
I1
sS'digit0time'
p165
F2.7490179538726807
sS'digit7attempts'
p166
I1
sS'digit0attempts'
p167
I1
sS'digit3time'
p168
F3.635751962661743
sS'digit9time'
p169
F2.5999679565429688
sS'digit7time'
p170
F4.127439022064209
ssS'\x1b[a'
p171
(dp172
S'complvl3'
p173
I00
sS'complvl2'
p174
I00
sS'complvl1'
p175
I01
sS'digit1time'
p176
F2.663015842437744
sS'digit1attempts'
p177
I1
sS'digit9attempts'
p178
I3
sS'digit3attempts'
p179
I1
sS'digit4time'
p180
F2.3872148990631104
sS'digit5time'
p181
F2.266148090362549
sS'besttime'
p182
I100
sS'digit6time'
p183
F3.1504719257354736
sS'digit6attempts'
p184
I1
sS'digit5attempts'
p185
I1
sS'digit8attempts'
p186
I3
sS'logins'
p187
I1
sS'digit2attempts'
p188
I1
sS'digit2time'
p189
F2.730854034423828
sS'digit8time'
p190
F2.908625841140747
sS'badge4'
p191
I00
sS'badge1'
p192
I01
sS'digit4attempts'
p193
I1
sS'badge3'
p194
I00
sS'badge2'
p195
I00
sS'digit0time'
p196
F2.4541289806365967
sS'digit7attempts'
p197
I1
sS'digit0attempts'
p198
I1
sS'digit3time'
p199
F2.8336739540100098
sS'digit9time'
p200
F2.156592845916748
sS'digit7time'
p201
F3.233834981918335
ssS'waffles'
p202
(dp203
S'complvl3'
p204
I00
sS'complvl2'
p205
I00
sS'complvl1'
p206
I01
sS'digit1time'
p207
F2.615159034729004
sS'digit1attempts'
p208
I1
sS'digit9attempts'
p209
I3
sS'digit3attempts'
p210
I1
sS'digit4time'
p211
F2.745612144470215
sS'digit5time'
p212
F2.5754199028015137
sS'besttime'
p213
I100
sS'digit6time'
p214
F3.566905975341797
sS'digit6attempts'
p215
I1
sS'digit5attempts'
p216
I1
sS'digit8attempts'
p217
I3
sS'logins'
p218
I3
sS'digit2attempts'
p219
I1
sS'digit2time'
p220
F2.9231679439544678
sS'digit8time'
p221
F4.395630121231079
sS'badge4'
p222
I00
sS'badge1'
p223
I01
sS'digit4attempts'
p224
I1
sS'badge3'
p225
I00
sS'badge2'
p226
I00
sS'digit0time'
p227
F2.6770808696746826
sS'digit7attempts'
p228
I1
sS'digit0attempts'
p229
I1
sS'digit3time'
p230
F2.9772799015045166
sS'digit9time'
p231
F2.6339619159698486
sS'digit7time'
p232
F4.467180013656616
ssS'locria'
p233
(dp234
S'complvl3'
p235
I00
sS'complvl2'
p236
I00
sS'complvl1'
p237
I00
sS'digit1time'
p238
F5.169923782348633
sS'digit1attempts'
p239
I1
sS'digit9attempts'
p240
I1
sS'digit3attempts'
p241
I1
sS'digit4time'
p242
F7.5657289028167725
sS'digit5time'
p243
F2.359577178955078
sS'besttime'
p244
I100
sS'digit6time'
p245
F4.957659959793091
sS'digit6attempts'
p246
I1
sS'digit5attempts'
p247
I1
sS'digit8attempts'
p248
I1
sS'logins'
p249
I1
sS'digit2attempts'
p250
I1
sS'digit2time'
p251
F5.211061954498291
sS'digit8time'
p252
F6.331111907958984
sS'digit4attempts'
p253
I1
sS'digit0time'
p254
F8.499089002609253
sS'digit7attempts'
p255
I1
sS'digit0attempts'
p256
I1
sS'digit3time'
p257
F7.602054834365845
sS'digit9time'
p258
F4.112004995346069
sS'digit7time'
p259
F4.6053290367126465
ssS'tomato'
p260
(dp261
S'complvl3'
p262
I00
sS'complvl2'
p263
I00
sS'complvl1'
p264
I00
sS'digit1time'
p265
I100
sS'digit1attempts'
p266
I0
sS'digit9attempts'
p267
I0
sS'digit3attempts'
p268
I0
sS'digit4time'
p269
I100
sS'digit5time'
p270
I100
sS'besttime'
p271
I100
sS'digit6time'
p272
I100
sS'digit6attempts'
p273
I0
sS'digit5attempts'
p274
I0
sS'digit8attempts'
p275
I0
sS'logins'
p276
I1
sS'digit2attempts'
p277
I0
sS'digit2time'
p278
I100
sS'digit8time'
p279
I100
sS'badge4'
p280
I00
sS'badge1'
p281
I00
sS'digit4attempts'
p282
I0
sS'badge3'
p283
I00
sS'badge2'
p284
I00
sS'digit0time'
p285
I100
sS'digit7attempts'
p286
I0
sS'digit0attempts'
p287
I0
sS'digit3time'
p288
I100
sS'digit9time'
p289
I100
sS'digit7time'
p290
I100
ssS'rich'
p291
(dp292
S'complvl3'
p293
I00
sS'complvl2'
p294
I00
sS'complvl1'
p295
I00
sS'digit1time'
p296
I100
sS'digit1attempts'
p297
I0
sS'digit9attempts'
p298
I0
sS'digit3attempts'
p299
I0
sS'digit4time'
p300
I100
sS'digit5time'
p301
I100
sS'besttime'
p302
I100
sS'digit6time'
p303
I100
sS'digit6attempts'
p304
I0
sS'digit5attempts'
p305
I0
sS'digit8attempts'
p306
I0
sS'logins'
p307
I2
sS'digit2attempts'
p308
I0
sS'digit2time'
p309
I100
sS'digit8time'
p310
I100
sS'digit4attempts'
p311
I0
sS'digit0time'
p312
F7.464498043060303
sS'digit7attempts'
p313
I0
sS'digit0attempts'
p314
I1
sS'digit3time'
p315
I100
sS'digit9time'
p316
I100
sS'digit7time'
p317
I100
ssS'terry'
p318
(dp319
S'complvl3'
p320
I00
sS'complvl2'
p321
I00
sS'complvl1'
p322
I00
sS'digit1time'
p323
F18.947826862335205
sS'digit1attempts'
p324
I1
sS'digit9attempts'
p325
I1
sS'digit3attempts'
p326
I1
sS'digit4time'
p327
F3.4383280277252197
sS'digit5time'
p328
F11.423698902130127
sS'besttime'
p329
I100
sS'digit6time'
p330
F5.7167580127716064
sS'digit6attempts'
p331
I1
sS'digit5attempts'
p332
I1
sS'digit8attempts'
p333
I2
sS'logins'
p334
I1
sS'digit2attempts'
p335
I1
sS'digit2time'
p336
F4.241454124450684
sS'digit8time'
p337
F5.035272836685181
sS'digit4attempts'
p338
I1
sS'digit0time'
p339
F8.50641918182373
sS'digit7attempts'
p340
I1
sS'digit0attempts'
p341
I1
sS'digit3time'
p342
F4.811406850814819
sS'digit9time'
p343
F3.727419853210449
sS'digit7time'
p344
F7.642652988433838
ssS'bongard'
p345
(dp346
S'complvl3'
p347
I00
sS'complvl2'
p348
I00
sS'complvl1'
p349
I01
sS'digit1time'
p350
F2.3132169246673584
sS'digit1attempts'
p351
I1
sS'digit9attempts'
p352
I5
sS'digit3attempts'
p353
I1
sS'digit4time'
p354
F2.330763101577759
sS'digit5time'
p355
F1.8760099411010742
sS'besttime'
p356
I100
sS'digit6time'
p357
F4.9434850215911865
sS'digit6attempts'
p358
I1
sS'digit5attempts'
p359
I1
sS'digit8attempts'
p360
I5
sS'logins'
p361
I5
sS'digit2attempts'
p362
I1
sS'digit2time'
p363
F2.647374153137207
sS'digit8time'
p364
F2.8296868801116943
sS'badge4'
p365
I00
sS'badge1'
p366
I01
sS'digit4attempts'
p367
I1
sS'badge3'
p368
I00
sS'badge2'
p369
I00
sS'digit0time'
p370
F2.387752056121826
sS'digit7attempts'
p371
I1
sS'digit0attempts'
p372
I1
sS'digit3time'
p373
F2.3914718627929688
sS'digit9time'
p374
F2.2661709785461426
sS'digit7time'
p375
F2.6847071647644043
ssS'lily'
p376
(dp377
S'complvl3'
p378
I00
sS'complvl2'
p379
I00
sS'complvl1'
p380
I01
sS'digit1time'
p381
F1.1479251384735107
sS'digit1attempts'
p382
I138
sS'digit9attempts'
p383
I224
sS'digit3attempts'
p384
I120
sS'digit4time'
p385
F1.133066177368164
sS'digit5time'
p386
F1.1511318683624268
sS'besttime'
p387
I100
sS'digit6time'
p388
F0.8762550354003906
sS'digit6attempts'
p389
I134
sS'digit5attempts'
p390
I114
sS'digit8attempts'
p391
I204
sS'logins'
p392
I430
sS'digit2attempts'
p393
I130
sS'digit2time'
p394
F1.2657248973846436
sS'digit8time'
p395
F1.503237009048462
sS'badge1'
p396
I01
sS'digit4attempts'
p397
I123
sS'digit0time'
p398
F1.1400551795959473
sS'digit7attempts'
p399
I151
sS'digit0attempts'
p400
I151
sS'digit3time'
p401
F1.0351600646972656
sS'digit9time'
p402
F0.8435559272766113
sS'digit7time'
p403
F1.4358251094818115
ssS'joey'
p404
(dp405
S'complvl3'
p406
I00
sS'complvl2'
p407
I00
sS'complvl1'
p408
I00
sS'digit1time'
p409
F2.163270950317383
sS'digit1attempts'
p410
I3
sS'digit9attempts'
p411
I2
sS'digit3attempts'
p412
I3
sS'digit4time'
p413
F2.6625611782073975
sS'digit5time'
p414
F2.3824448585510254
sS'besttime'
p415
I100
sS'digit6time'
p416
F1.7782070636749268
sS'digit6attempts'
p417
I2
sS'digit5attempts'
p418
I3
sS'digit8attempts'
p419
I2
sS'logins'
p420
I2
sS'digit2attempts'
p421
I2
sS'digit2time'
p422
F2.3617031574249268
sS'digit8time'
p423
F1.5236079692840576
sS'digit4attempts'
p424
I3
sS'digit0time'
p425
F2.5387730598449707
sS'digit7attempts'
p426
I2
sS'digit0attempts'
p427
I3
sS'digit3time'
p428
F3.8129940032958984
sS'digit9time'
p429
F1.6178112030029297
sS'digit7time'
p430
F1.744049072265625
ss.