(dp0
S'bongard'
p1
(dp2
S'complvl3'
p3
I00
sS'complvl2'
p4
I00
sS'complvl1'
p5
I00
sS'digit1time'
p6
I100
sS'digit1attempts'
p7
I0
sS'digit9attempts'
p8
I0
sS'digit3attempts'
p9
I0
sS'digit4time'
p10
I100
sS'digit5time'
p11
I100
sS'besttime'
p12
I100
sS'digit6time'
p13
I100
sS'digit6attempts'
p14
I0
sS'digit5attempts'
p15
I0
sS'digit8attempts'
p16
I0
sS'logins'
p17
I1
sS'bestscore'
p18
I0
sS'digit2attempts'
p19
I0
sS'digit2time'
p20
I100
sS'digit8time'
p21
I100
sS'badge4'
p22
I00
sS'badge1'
p23
I00
sS'digit4attempts'
p24
I0
sS'badge3'
p25
I00
sS'badge2'
p26
I00
sS'digit0time'
p27
I100
sS'digit7attempts'
p28
I0
sS'digit0attempts'
p29
I0
sS'digit3time'
p30
I100
sS'digit9time'
p31
I100
sS'digit7time'
p32
I100
ssS'potatoes'
p33
(dp34
S'complvl3'
p35
I00
sS'complvl2'
p36
I00
sS'complvl1'
p37
I00
sS'digit1time'
p38
I100
sS'digit1attempts'
p39
I0
sS'digit9attempts'
p40
I0
sS'digit3attempts'
p41
I0
sS'digit4time'
p42
I100
sS'digit5time'
p43
I100
sS'besttime'
p44
I100
sS'digit6time'
p45
I100
sS'digit6attempts'
p46
I0
sS'digit5attempts'
p47
I0
sS'digit8attempts'
p48
I0
sS'logins'
p49
I1
sS'bestscore'
p50
I0
sS'digit2attempts'
p51
I0
sS'digit2time'
p52
I100
sS'digit8time'
p53
I100
sS'badge4'
p54
I00
sS'badge1'
p55
I00
sS'digit4attempts'
p56
I0
sS'badge3'
p57
I00
sS'badge2'
p58
I00
sS'digit0time'
p59
I100
sS'digit7attempts'
p60
I0
sS'digit0attempts'
p61
I0
sS'digit3time'
p62
I100
sS'digit9time'
p63
I100
sS'digit7time'
p64
I100
ssS'lily'
p65
(dp66
S'complvl3'
p67
I01
sS'complvl2'
p68
I01
sS'complvl1'
p69
I01
sS'digit1time'
p70
F2.400738000869751
sS'digit1attempts'
p71
I11
sS'digit9attempts'
p72
I7
sS'digit3attempts'
p73
I6
sS'digit4time'
p74
F1.896873950958252
sS'digit5time'
p75
F2.1061668395996094
sS'besttime'
p76
I100
sS'digit6time'
p77
F2.293365955352783
sS'digit6attempts'
p78
I8
sS'digit5attempts'
p79
I11
sS'digit8attempts'
p80
I8
sS'logins'
p81
I29
sS'bestscore'
p82
I17
sS'digit2attempts'
p83
I11
sS'digit2time'
p84
F2.3194289207458496
sS'digit8time'
p85
F2.3622260093688965
sS'badge4'
p86
I00
sS'badge1'
p87
I01
sS'digit4attempts'
p88
I16
sS'badge3'
p89
I01
sS'badge2'
p90
I01
sS'digit0time'
p91
F1.7793819904327393
sS'digit7attempts'
p92
I11
sS'digit0attempts'
p93
I11
sS'digit3time'
p94
F1.7463390827178955
sS'digit9time'
p95
F2.047762870788574
sS'digit7time'
p96
F2.309749126434326
ssS'bonbons'
p97
(dp98
S'complvl3'
p99
I01
sS'complvl2'
p100
I00
sS'complvl1'
p101
I00
sS'digit1time'
p102
I100
sS'digit1attempts'
p103
I0
sS'digit9attempts'
p104
I0
sS'digit3attempts'
p105
I0
sS'digit4time'
p106
I100
sS'digit5time'
p107
I100
sS'besttime'
p108
I100
sS'digit6time'
p109
I100
sS'digit6attempts'
p110
I0
sS'digit5attempts'
p111
I0
sS'digit8attempts'
p112
I0
sS'logins'
p113
I3
sS'bestscore'
p114
I1
sS'digit2attempts'
p115
I0
sS'digit2time'
p116
I100
sS'digit8time'
p117
I100
sS'badge4'
p118
I00
sS'badge1'
p119
I00
sS'digit4attempts'
p120
I0
sS'badge3'
p121
I01
sS'badge2'
p122
I00
sS'digit0time'
p123
I100
sS'digit7attempts'
p124
I0
sS'digit0attempts'
p125
I1
sS'digit3time'
p126
I100
sS'digit9time'
p127
I100
sS'digit7time'
p128
I100
ssS'potato'
p129
(dp130
S'complvl3'
p131
I00
sS'complvl2'
p132
I00
sS'complvl1'
p133
I00
sS'digit1time'
p134
I100
sS'digit1attempts'
p135
I0
sS'digit9attempts'
p136
I0
sS'digit3attempts'
p137
I0
sS'digit4time'
p138
I100
sS'digit5time'
p139
I100
sS'besttime'
p140
I100
sS'digit6time'
p141
I100
sS'digit6attempts'
p142
I0
sS'digit5attempts'
p143
I0
sS'digit8attempts'
p144
I0
sS'logins'
p145
I1
sS'bestscore'
p146
I0
sS'digit2attempts'
p147
I0
sS'digit2time'
p148
I100
sS'digit8time'
p149
I100
sS'badge4'
p150
I00
sS'badge1'
p151
I00
sS'digit4attempts'
p152
I0
sS'badge3'
p153
I00
sS'badge2'
p154
I00
sS'digit0time'
p155
I100
sS'digit7attempts'
p156
I0
sS'digit0attempts'
p157
I0
sS'digit3time'
p158
I100
sS'digit9time'
p159
I100
sS'digit7time'
p160
I100
ss.