(dp0
S'lily'
p1
(dp2
S'complvl3'
p3
I00
sS'complvl2'
p4
I00
sS'complvl1'
p5
I01
sS'digit1time'
p6
F1.7182700634002686
sS'digit1attempts'
p7
I49
sS'digit9attempts'
p8
I96
sS'digit3attempts'
p9
I44
sS'digit4time'
p10
F1.740433931350708
sS'digit5time'
p11
F1.644531011581421
sS'besttime'
p12
I100
sS'digit6time'
p13
F1.6971540451049805
sS'digit6attempts'
p14
I43
sS'digit5attempts'
p15
I38
sS'digit8attempts'
p16
I89
sS'logins'
p17
I201
sS'digit2attempts'
p18
I47
sS'digit2time'
p19
F1.7291579246520996
sS'digit8time'
p20
F2.124112129211426
sS'digit4attempts'
p21
I42
sS'digit0time'
p22
F1.4374887943267822
sS'digit7attempts'
p23
I70
sS'digit0attempts'
p24
I56
sS'digit3time'
p25
F1.565107822418213
sS'digit9time'
p26
F1.338109016418457
sS'digit7time'
p27
F2.0307891368865967
ss.